; Function Attrs: nounwind uwtable
define nonnull ptr @l_Lean_Elab_isValidAutoBoundImplicitName___boxed(ptr noundef %0, ptr noundef %1) local_unnamed_addr #0 {
  %3 = ptrtoint ptr %1 to i64
  %4 = and i64 %3, 1
  %.not = icmp eq i64 %4, 0
  br i1 %.not, label %5, label %lean_dec.exit

5:                                                ; preds = %2
  %6 = load i32, ptr %1, align 4, !tbaa !10
  %7 = icmp sgt i32 %6, 1
  br i1 %7, label %8, label %10, !prof !14

8:                                                ; preds = %5
  %9 = add nsw i32 %6, -1
  store i32 %9, ptr %1, align 4, !tbaa !10
  br label %lean_dec.exit

10:                                               ; preds = %5
  %.not.i = icmp eq i32 %6, 0
  br i1 %.not.i, label %lean_dec.exit, label %11

11:                                               ; preds = %10
  tail call void @lean_dec_ref_cold(ptr noundef nonnull %1) #3
  br label %lean_dec.exit

lean_dec.exit:                                    ; preds = %11, %10, %8, %2
  %12 = lshr i64 %3, 1
  %13 = trunc i64 %12 to i8
  %14 = tail call zeroext i8 @l_Lean_Elab_isValidAutoBoundImplicitName(ptr noundef %0, i8 noundef zeroext %13)
  %15 = shl nuw nsw i8 %14, 1
  %16 = or disjoint i8 %15, 1
  %17 = zext nneg i8 %16 to i64
  %18 = inttoptr i64 %17 to ptr
  ret ptr %18
}